target datalayout = "e-m:e-p270:32:32-p271:32:32-p272:64:64-i64:64-i128:128-f80:128-n8:16:32:64-S128"
target triple = "x86_64-pc-linux-gnu"

%struct.H5O_efl_t = type { i64, i64, i64, ptr }
%struct.H5O_efl_entry_t = type { i64, ptr, i64, i64 }

@H5O_init_g = external global i8, align 1
@H5_libterm_g = external global i8, align 1
@.str.1 = private unnamed_addr constant [100 x i8] c"generated/home/dtcxzyw/WorkSpace/Projects/compilers/llvm-opt-benchmark/bench/hdf5/hdf5/src/H5Oefl.c\00", align 1
@H5E_OHDR_g = external global i64, align 8
@__func__.H5O__efl_copy = private unnamed_addr constant [14 x i8] c"H5O__efl_copy\00", align 1
@H5E_CANTALLOC_g = external global i64, align 8
@.str.15 = private unnamed_addr constant [27 x i8] c"can't allocate efl message\00", align 1
@.str.16 = private unnamed_addr constant [33 x i8] c"can't allocate efl message slots\00", align 1
@.str.17 = private unnamed_addr constant [37 x i8] c"can't allocate efl message slot name\00", align 1

; Function Attrs: nounwind uwtable
define internal ptr @H5O__efl_copy(ptr noundef %0, ptr noundef %1) #0 {
  %3 = alloca ptr, align 8
  %4 = alloca ptr, align 8
  %5 = alloca ptr, align 8
  %6 = alloca ptr, align 8
  %7 = alloca i64, align 8
  %8 = alloca i8, align 1
  %9 = alloca ptr, align 8
  %10 = alloca i8, align 1
  store ptr %0, ptr %3, align 8, !tbaa !22
  store ptr %1, ptr %4, align 8, !tbaa !22
  call void @llvm.lifetime.start.p0(i64 8, ptr %5) #8
  %11 = load ptr, ptr %3, align 8, !tbaa !22
  store ptr %11, ptr %5, align 8, !tbaa !18
  call void @llvm.lifetime.start.p0(i64 8, ptr %6) #8
  %12 = load ptr, ptr %4, align 8, !tbaa !22
  store ptr %12, ptr %6, align 8, !tbaa !18
  call void @llvm.lifetime.start.p0(i64 8, ptr %7) #8
  call void @llvm.lifetime.start.p0(i64 1, ptr %8) #8
  store i8 0, ptr %8, align 1, !tbaa !23
  call void @llvm.lifetime.start.p0(i64 8, ptr %9) #8
  store ptr null, ptr %9, align 8, !tbaa !22
  call void @llvm.lifetime.start.p0(i64 1, ptr %10) #8
  store i8 0, ptr %10, align 1, !tbaa !23
  %13 = load i8, ptr @H5O_init_g, align 1, !tbaa !23, !range !25, !noundef !26
  %14 = trunc i8 %13 to i1
  br i1 %14, label %19, label %15

15:                                               ; preds = %2
  %16 = load i8, ptr @H5_libterm_g, align 1, !tbaa !23, !range !25, !noundef !26
  %17 = trunc i8 %16 to i1
  %18 = xor i1 %17, true
  br label %19

19:                                               ; preds = %15, %2
  %20 = phi i1 [ true, %2 ], [ %18, %15 ]
  %21 = xor i1 %20, true
  %22 = xor i1 %21, true
  %23 = zext i1 %22 to i32
  %24 = sext i32 %23 to i64
  %25 = call i64 @llvm.expect.i64(i64 %24, i64 1)
  %26 = icmp ne i64 %25, 0
  br i1 %26, label %27, label %218

27:                                               ; preds = %19
  %28 = load ptr, ptr %6, align 8, !tbaa !18
  %29 = icmp ne ptr %28, null
  br i1 %29, label %52, label %30

30:                                               ; preds = %27
  %31 = call noalias ptr @calloc(i64 noundef 1, i64 noundef 32) #9
  store ptr %31, ptr %6, align 8, !tbaa !18
  %32 = icmp eq ptr null, %31
  br i1 %32, label %33, label %52

33:                                               ; preds = %30
  br label %34

34:                                               ; preds = %33
  br label %35

35:                                               ; preds = %34
  br label %36

36:                                               ; preds = %35
  %37 = load i64, ptr @H5E_OHDR_g, align 8, !tbaa !14
  %38 = load i64, ptr @H5E_CANTALLOC_g, align 8, !tbaa !14
  %39 = call i32 (ptr, ptr, i32, i64, i64, ptr, ...) @H5E_printf_stack(ptr noundef @.str.1, ptr noundef @__func__.H5O__efl_copy, i32 noundef 283, i64 noundef %37, i64 noundef %38, ptr noundef @.str.15)
  br label %40

40:                                               ; preds = %36
  br label %41

41:                                               ; preds = %40
  store i8 1, ptr %10, align 1, !tbaa !23
  %42 = load i8, ptr %10, align 1, !tbaa !23, !range !25, !noundef !26
  %43 = trunc i8 %42 to i1
  %44 = zext i1 %43 to i8
  store i8 %44, ptr %10, align 1, !tbaa !23
  br label %45

45:                                               ; preds = %41
  br label %46

46:                                               ; preds = %45
  br label %47

47:                                               ; preds = %46
  store ptr null, ptr %9, align 8, !tbaa !22
  br label %146

48:                                               ; No predecessors!
  br label %49

49:                                               ; preds = %48
  br label %50

50:                                               ; preds = %49
  br label %51

51:                                               ; preds = %50
  br label %52

52:                                               ; preds = %51, %30, %27
  %53 = load ptr, ptr %6, align 8, !tbaa !18
  %54 = load ptr, ptr %5, align 8, !tbaa !18
  call void @llvm.memcpy.p0.p0.i64(ptr align 8 %53, ptr align 8 %54, i64 32, i1 false), !tbaa.struct !52
  %55 = load ptr, ptr %6, align 8, !tbaa !18
  %56 = getelementptr inbounds nuw %struct.H5O_efl_t, ptr %55, i32 0, i32 1
  %57 = load i64, ptr %56, align 8, !tbaa !28
  %58 = icmp ugt i64 %57, 0
  br i1 %58, label %59, label %144

59:                                               ; preds = %52
  %60 = load ptr, ptr %6, align 8, !tbaa !18
  %61 = getelementptr inbounds nuw %struct.H5O_efl_t, ptr %60, i32 0, i32 1
  %62 = load i64, ptr %61, align 8, !tbaa !28
  %63 = mul i64 %62, 32
  %64 = call noalias ptr @calloc(i64 noundef 1, i64 noundef %63) #9
  %65 = load ptr, ptr %6, align 8, !tbaa !18
  %66 = getelementptr inbounds nuw %struct.H5O_efl_t, ptr %65, i32 0, i32 3
  store ptr %64, ptr %66, align 8, !tbaa !33
  %67 = icmp eq ptr null, %64
  br i1 %67, label %68, label %87

68:                                               ; preds = %59
  br label %69

69:                                               ; preds = %68
  br label %70

70:                                               ; preds = %69
  br label %71

71:                                               ; preds = %70
  %72 = load i64, ptr @H5E_OHDR_g, align 8, !tbaa !14
  %73 = load i64, ptr @H5E_CANTALLOC_g, align 8, !tbaa !14
  %74 = call i32 (ptr, ptr, i32, i64, i64, ptr, ...) @H5E_printf_stack(ptr noundef @.str.1, ptr noundef @__func__.H5O__efl_copy, i32 noundef 291, i64 noundef %72, i64 noundef %73, ptr noundef @.str.16)
  br label %75

75:                                               ; preds = %71
  br label %76

76:                                               ; preds = %75
  store i8 1, ptr %10, align 1, !tbaa !23
  %77 = load i8, ptr %10, align 1, !tbaa !23, !range !25, !noundef !26
  %78 = trunc i8 %77 to i1
  %79 = zext i1 %78 to i8
  store i8 %79, ptr %10, align 1, !tbaa !23
  br label %80

80:                                               ; preds = %76
  br label %81

81:                                               ; preds = %80
  br label %82

82:                                               ; preds = %81
  store ptr null, ptr %9, align 8, !tbaa !22
  br label %146

83:                                               ; No predecessors!
  br label %84

84:                                               ; preds = %83
  br label %85

85:                                               ; preds = %84
  br label %86

86:                                               ; preds = %85
  br label %87

87:                                               ; preds = %86, %59
  store i8 1, ptr %8, align 1, !tbaa !23
  store i64 0, ptr %7, align 8, !tbaa !14
  br label %88

88:                                               ; preds = %140, %87
  %89 = load i64, ptr %7, align 8, !tbaa !14
  %90 = load ptr, ptr %5, align 8, !tbaa !18
  %91 = getelementptr inbounds nuw %struct.H5O_efl_t, ptr %90, i32 0, i32 2
  %92 = load i64, ptr %91, align 8, !tbaa !31
  %93 = icmp ult i64 %89, %92
  br i1 %93, label %94, label %143

94:                                               ; preds = %88
  %95 = load ptr, ptr %6, align 8, !tbaa !18
  %96 = getelementptr inbounds nuw %struct.H5O_efl_t, ptr %95, i32 0, i32 3
  %97 = load ptr, ptr %96, align 8, !tbaa !33
  %98 = load i64, ptr %7, align 8, !tbaa !14
  %99 = getelementptr inbounds nuw %struct.H5O_efl_entry_t, ptr %97, i64 %98
  %100 = load ptr, ptr %5, align 8, !tbaa !18
  %101 = getelementptr inbounds nuw %struct.H5O_efl_t, ptr %100, i32 0, i32 3
  %102 = load ptr, ptr %101, align 8, !tbaa !33
  %103 = load i64, ptr %7, align 8, !tbaa !14
  %104 = getelementptr inbounds nuw %struct.H5O_efl_entry_t, ptr %102, i64 %103
  call void @llvm.memcpy.p0.p0.i64(ptr align 8 %99, ptr align 8 %104, i64 32, i1 false), !tbaa.struct !54
  %105 = load ptr, ptr %5, align 8, !tbaa !18
  %106 = getelementptr inbounds nuw %struct.H5O_efl_t, ptr %105, i32 0, i32 3
  %107 = load ptr, ptr %106, align 8, !tbaa !33
  %108 = load i64, ptr %7, align 8, !tbaa !14
  %109 = getelementptr inbounds nuw %struct.H5O_efl_entry_t, ptr %107, i64 %108
  %110 = getelementptr inbounds nuw %struct.H5O_efl_entry_t, ptr %109, i32 0, i32 1
  %111 = load ptr, ptr %110, align 8, !tbaa !38
  %112 = call noalias ptr @H5MM_xstrdup(ptr noundef %111)
  %113 = load ptr, ptr %6, align 8, !tbaa !18
  %114 = getelementptr inbounds nuw %struct.H5O_efl_t, ptr %113, i32 0, i32 3
  %115 = load ptr, ptr %114, align 8, !tbaa !33
  %116 = load i64, ptr %7, align 8, !tbaa !14
  %117 = getelementptr inbounds nuw %struct.H5O_efl_entry_t, ptr %115, i64 %116
  %118 = getelementptr inbounds nuw %struct.H5O_efl_entry_t, ptr %117, i32 0, i32 1
  store ptr %112, ptr %118, align 8, !tbaa !38
  %119 = icmp eq ptr null, %112
  br i1 %119, label %120, label %139

120:                                              ; preds = %94
  br label %121

121:                                              ; preds = %120
  br label %122

122:                                              ; preds = %121
  br label %123

123:                                              ; preds = %122
  %124 = load i64, ptr @H5E_OHDR_g, align 8, !tbaa !14
  %125 = load i64, ptr @H5E_CANTALLOC_g, align 8, !tbaa !14
  %126 = call i32 (ptr, ptr, i32, i64, i64, ptr, ...) @H5E_printf_stack(ptr noundef @.str.1, ptr noundef @__func__.H5O__efl_copy, i32 noundef 296, i64 noundef %124, i64 noundef %125, ptr noundef @.str.17)
  br label %127

127:                                              ; preds = %123
  br label %128

128:                                              ; preds = %127
  store i8 1, ptr %10, align 1, !tbaa !23
  %129 = load i8, ptr %10, align 1, !tbaa !23, !range !25, !noundef !26
  %130 = trunc i8 %129 to i1
  %131 = zext i1 %130 to i8
  store i8 %131, ptr %10, align 1, !tbaa !23
  br label %132

132:                                              ; preds = %128
  br label %133

133:                                              ; preds = %132
  br label %134

134:                                              ; preds = %133
  store ptr null, ptr %9, align 8, !tbaa !22
  br label %146

135:                                              ; No predecessors!
  br label %136

136:                                              ; preds = %135
  br label %137

137:                                              ; preds = %136
  br label %138

138:                                              ; preds = %137
  br label %139

139:                                              ; preds = %138, %94
  br label %140

140:                                              ; preds = %139
  %141 = load i64, ptr %7, align 8, !tbaa !14
  %142 = add i64 %141, 1
  store i64 %142, ptr %7, align 8, !tbaa !14
  br label %88, !llvm.loop !55

143:                                              ; preds = %88
  br label %144

144:                                              ; preds = %143, %52
  %145 = load ptr, ptr %6, align 8, !tbaa !18
  store ptr %145, ptr %9, align 8, !tbaa !22
  br label %146

146:                                              ; preds = %144, %134, %82, %47
  %147 = load ptr, ptr %9, align 8, !tbaa !22
  %148 = icmp eq ptr null, %147
  br i1 %148, label %149, label %217

149:                                              ; preds = %146
  %150 = load i8, ptr %8, align 1, !tbaa !23, !range !25, !noundef !26
  %151 = trunc i8 %150 to i1
  br i1 %151, label %152, label %210

152:                                              ; preds = %149
  store i64 0, ptr %7, align 8, !tbaa !14
  br label %153

153:                                              ; preds = %200, %152
  %154 = load i64, ptr %7, align 8, !tbaa !14
  %155 = load ptr, ptr %6, align 8, !tbaa !18
  %156 = getelementptr inbounds nuw %struct.H5O_efl_t, ptr %155, i32 0, i32 2
  %157 = load i64, ptr %156, align 8, !tbaa !31
  %158 = icmp ult i64 %154, %157
  br i1 %158, label %159, label %203

159:                                              ; preds = %153
  %160 = load ptr, ptr %6, align 8, !tbaa !18
  %161 = getelementptr inbounds nuw %struct.H5O_efl_t, ptr %160, i32 0, i32 3
  %162 = load ptr, ptr %161, align 8, !tbaa !33
  %163 = load i64, ptr %7, align 8, !tbaa !14
  %164 = getelementptr inbounds nuw %struct.H5O_efl_entry_t, ptr %162, i64 %163
  %165 = getelementptr inbounds nuw %struct.H5O_efl_entry_t, ptr %164, i32 0, i32 1
  %166 = load ptr, ptr %165, align 8, !tbaa !38
  %167 = icmp ne ptr %166, null
  br i1 %167, label %168, label %199

168:                                              ; preds = %159
  %169 = load ptr, ptr %6, align 8, !tbaa !18
  %170 = getelementptr inbounds nuw %struct.H5O_efl_t, ptr %169, i32 0, i32 3
  %171 = load ptr, ptr %170, align 8, !tbaa !33
  %172 = load i64, ptr %7, align 8, !tbaa !14
  %173 = getelementptr inbounds nuw %struct.H5O_efl_entry_t, ptr %171, i64 %172
  %174 = getelementptr inbounds nuw %struct.H5O_efl_entry_t, ptr %173, i32 0, i32 1
  %175 = load ptr, ptr %174, align 8, !tbaa !38
  %176 = load ptr, ptr %5, align 8, !tbaa !18
  %177 = getelementptr inbounds nuw %struct.H5O_efl_t, ptr %176, i32 0, i32 3
  %178 = load ptr, ptr %177, align 8, !tbaa !33
  %179 = load i64, ptr %7, align 8, !tbaa !14
  %180 = getelementptr inbounds nuw %struct.H5O_efl_entry_t, ptr %178, i64 %179
  %181 = getelementptr inbounds nuw %struct.H5O_efl_entry_t, ptr %180, i32 0, i32 1
  %182 = load ptr, ptr %181, align 8, !tbaa !38
  %183 = icmp ne ptr %175, %182
  br i1 %183, label %184, label %199

184:                                              ; preds = %168
  %185 = load ptr, ptr %6, align 8, !tbaa !18
  %186 = getelementptr inbounds nuw %struct.H5O_efl_t, ptr %185, i32 0, i32 3
  %187 = load ptr, ptr %186, align 8, !tbaa !33
  %188 = load i64, ptr %7, align 8, !tbaa !14
  %189 = getelementptr inbounds nuw %struct.H5O_efl_entry_t, ptr %187, i64 %188
  %190 = getelementptr inbounds nuw %struct.H5O_efl_entry_t, ptr %189, i32 0, i32 1
  %191 = load ptr, ptr %190, align 8, !tbaa !38
  %192 = call ptr @H5MM_xfree(ptr noundef %191)
  %193 = load ptr, ptr %6, align 8, !tbaa !18
  %194 = getelementptr inbounds nuw %struct.H5O_efl_t, ptr %193, i32 0, i32 3
  %195 = load ptr, ptr %194, align 8, !tbaa !33
  %196 = load i64, ptr %7, align 8, !tbaa !14
  %197 = getelementptr inbounds nuw %struct.H5O_efl_entry_t, ptr %195, i64 %196
  %198 = getelementptr inbounds nuw %struct.H5O_efl_entry_t, ptr %197, i32 0, i32 1
  store ptr %192, ptr %198, align 8, !tbaa !38
  br label %199

199:                                              ; preds = %184, %168, %159
  br label %200

200:                                              ; preds = %199
  %201 = load i64, ptr %7, align 8, !tbaa !14
  %202 = add i64 %201, 1
  store i64 %202, ptr %7, align 8, !tbaa !14
  br label %153, !llvm.loop !56

203:                                              ; preds = %153
  %204 = load ptr, ptr %6, align 8, !tbaa !18
  %205 = getelementptr inbounds nuw %struct.H5O_efl_t, ptr %204, i32 0, i32 3
  %206 = load ptr, ptr %205, align 8, !tbaa !33
  %207 = call ptr @H5MM_xfree(ptr noundef %206)
  %208 = load ptr, ptr %6, align 8, !tbaa !18
  %209 = getelementptr inbounds nuw %struct.H5O_efl_t, ptr %208, i32 0, i32 3
  store ptr %207, ptr %209, align 8, !tbaa !33
  br label %210

210:                                              ; preds = %203, %149
  %211 = load ptr, ptr %4, align 8, !tbaa !22
  %212 = icmp eq ptr null, %211
  br i1 %212, label %213, label %216

213:                                              ; preds = %210
  %214 = load ptr, ptr %6, align 8, !tbaa !18
  %215 = call ptr @H5MM_xfree(ptr noundef %214)
  store ptr %215, ptr %6, align 8, !tbaa !18
  br label %216

216:                                              ; preds = %213, %210
  br label %217

217:                                              ; preds = %216, %146
  br label %218

218:                                              ; preds = %217, %19
  %219 = load ptr, ptr %9, align 8, !tbaa !22
  call void @llvm.lifetime.end.p0(i64 1, ptr %10) #8
  call void @llvm.lifetime.end.p0(i64 8, ptr %9) #8
  call void @llvm.lifetime.end.p0(i64 1, ptr %8) #8
  call void @llvm.lifetime.end.p0(i64 8, ptr %7) #8
  call void @llvm.lifetime.end.p0(i64 8, ptr %6) #8
  call void @llvm.lifetime.end.p0(i64 8, ptr %5) #8
  ret ptr %219
}