; Function Attrs: nounwind uwtable
define internal noundef ptr @H5O__efl_copy(ptr noundef readonly captures(none) %0, ptr noundef %1) #0 {
  %3 = load i8, ptr @H5O_init_g, align 1, !tbaa !8, !range !10, !noundef !11
  %4 = trunc nuw i8 %3 to i1
  %5 = load i8, ptr @H5_libterm_g, align 1, !range !10
  %6 = trunc nuw i8 %5 to i1
  %7 = xor i1 %6, true
  %8 = select i1 %4, i1 true, i1 %7
  br i1 %8, label %9, label %.loopexit, !prof !12

9:                                                ; preds = %2
  %.not = icmp eq ptr %1, null
  br i1 %.not, label %10, label %16

10:                                               ; preds = %9
  %11 = tail call noalias dereferenceable_or_null(32) ptr @calloc(i64 noundef 1, i64 noundef 32) #10
  %12 = icmp eq ptr %11, null
  br i1 %12, label %.thread62.thread, label %16

.thread62.thread:                                 ; preds = %10
  %13 = load i64, ptr @H5E_OHDR_g, align 8, !tbaa !13
  %14 = load i64, ptr @H5E_CANTALLOC_g, align 8, !tbaa !13
  %15 = tail call i32 (ptr, ptr, i32, i64, i64, ptr, ...) @H5E_printf_stack(ptr noundef nonnull @.str.1, ptr noundef nonnull @__func__.H5O__efl_copy, i32 noundef 283, i64 noundef %13, i64 noundef %14, ptr noundef nonnull @.str.15) #11
  br label %72

16:                                               ; preds = %10, %9
  %.046 = phi ptr [ %1, %9 ], [ %11, %10 ]
  tail call void @llvm.memcpy.p0.p0.i64(ptr noundef nonnull align 8 dereferenceable(32) %.046, ptr noundef nonnull align 8 dereferenceable(32) %0, i64 32, i1 false), !tbaa.struct !37
  %17 = getelementptr inbounds nuw i8, ptr %.046, i64 8
  %18 = load i64, ptr %17, align 8, !tbaa !16
  %.not53.not = icmp eq i64 %18, 0
  br i1 %.not53.not, label %.loopexit, label %19

19:                                               ; preds = %16
  %20 = shl i64 %18, 5
  %21 = tail call noalias ptr @calloc(i64 noundef 1, i64 noundef %20) #10
  %22 = getelementptr inbounds nuw i8, ptr %.046, i64 24
  store ptr %21, ptr %22, align 8, !tbaa !21
  %23 = icmp eq ptr %21, null
  br i1 %23, label %27, label %.preheader

.preheader:                                       ; preds = %19
  %24 = getelementptr inbounds nuw i8, ptr %0, i64 16
  %25 = load i64, ptr %24, align 8, !tbaa !19
  %.not71 = icmp eq i64 %25, 0
  br i1 %.not71, label %.loopexit, label %.lr.ph

.lr.ph:                                           ; preds = %.preheader
  %26 = getelementptr inbounds nuw i8, ptr %0, i64 24
  br label %35

27:                                               ; preds = %19
  %28 = load i64, ptr @H5E_OHDR_g, align 8, !tbaa !13
  %29 = load i64, ptr @H5E_CANTALLOC_g, align 8, !tbaa !13
  %30 = tail call i32 (ptr, ptr, i32, i64, i64, ptr, ...) @H5E_printf_stack(ptr noundef nonnull @.str.1, ptr noundef nonnull @__func__.H5O__efl_copy, i32 noundef 291, i64 noundef %28, i64 noundef %29, ptr noundef nonnull @.str.16) #11
  br label %.thread62

31:                                               ; preds = %35
  %32 = add nuw i64 %.04468, 1
  %33 = load i64, ptr %24, align 8, !tbaa !19
  %34 = icmp ult i64 %32, %33
  br i1 %34, label %35, label %.loopexit, !llvm.loop !39

35:                                               ; preds = %.lr.ph, %31
  %36 = phi ptr [ %21, %.lr.ph ], [ %44, %31 ]
  %.04468 = phi i64 [ 0, %.lr.ph ], [ %32, %31 ]
  %37 = getelementptr inbounds nuw %struct.H5O_efl_entry_t, ptr %36, i64 %.04468
  %38 = load ptr, ptr %26, align 8, !tbaa !21
  %39 = getelementptr inbounds nuw %struct.H5O_efl_entry_t, ptr %38, i64 %.04468
  tail call void @llvm.memcpy.p0.p0.i64(ptr noundef nonnull align 8 dereferenceable(32) %37, ptr noundef nonnull align 8 dereferenceable(32) %39, i64 32, i1 false), !tbaa.struct !40
  %40 = load ptr, ptr %26, align 8, !tbaa !21
  %41 = getelementptr inbounds nuw %struct.H5O_efl_entry_t, ptr %40, i64 %.04468, i32 1
  %42 = load ptr, ptr %41, align 8, !tbaa !26
  %43 = tail call noalias ptr @H5MM_xstrdup(ptr noundef %42) #11
  %44 = load ptr, ptr %22, align 8, !tbaa !21
  %45 = getelementptr inbounds nuw %struct.H5O_efl_entry_t, ptr %44, i64 %.04468, i32 1
  store ptr %43, ptr %45, align 8, !tbaa !26
  %46 = icmp eq ptr %43, null
  br i1 %46, label %47, label %31

47:                                               ; preds = %35
  %48 = load i64, ptr @H5E_OHDR_g, align 8, !tbaa !13
  %49 = load i64, ptr @H5E_CANTALLOC_g, align 8, !tbaa !13
  %50 = tail call i32 (ptr, ptr, i32, i64, i64, ptr, ...) @H5E_printf_stack(ptr noundef nonnull @.str.1, ptr noundef nonnull @__func__.H5O__efl_copy, i32 noundef 296, i64 noundef %48, i64 noundef %49, ptr noundef nonnull @.str.17) #11
  %51 = getelementptr inbounds nuw i8, ptr %.046, i64 16
  %52 = load i64, ptr %51, align 8, !tbaa !19
  %.not72 = icmp eq i64 %52, 0
  %.pre74 = load ptr, ptr %22, align 8, !tbaa !21
  br i1 %.not72, label %._crit_edge, label %.lr.ph70

.lr.ph70:                                         ; preds = %47, %65
  %53 = phi i64 [ %66, %65 ], [ %52, %47 ]
  %54 = phi ptr [ %67, %65 ], [ %.pre74, %47 ]
  %.14569 = phi i64 [ %68, %65 ], [ 0, %47 ]
  %55 = getelementptr inbounds nuw %struct.H5O_efl_entry_t, ptr %54, i64 %.14569, i32 1
  %56 = load ptr, ptr %55, align 8, !tbaa !26
  %.not54 = icmp eq ptr %56, null
  br i1 %.not54, label %65, label %57

57:                                               ; preds = %.lr.ph70
  %58 = load ptr, ptr %26, align 8, !tbaa !21
  %59 = getelementptr inbounds nuw %struct.H5O_efl_entry_t, ptr %58, i64 %.14569, i32 1
  %60 = load ptr, ptr %59, align 8, !tbaa !26
  %.not55 = icmp eq ptr %56, %60
  br i1 %.not55, label %65, label %61

61:                                               ; preds = %57
  %62 = tail call ptr @H5MM_xfree(ptr noundef nonnull %56) #11
  %63 = load ptr, ptr %22, align 8, !tbaa !21
  %64 = getelementptr inbounds nuw %struct.H5O_efl_entry_t, ptr %63, i64 %.14569, i32 1
  store ptr %62, ptr %64, align 8, !tbaa !26
  %.pre73 = load i64, ptr %51, align 8, !tbaa !19
  br label %65

65:                                               ; preds = %.lr.ph70, %57, %61
  %66 = phi i64 [ %53, %.lr.ph70 ], [ %53, %57 ], [ %.pre73, %61 ]
  %67 = phi ptr [ %54, %.lr.ph70 ], [ %54, %57 ], [ %63, %61 ]
  %68 = add nuw i64 %.14569, 1
  %69 = icmp ult i64 %68, %66
  br i1 %69, label %.lr.ph70, label %._crit_edge, !llvm.loop !41

._crit_edge:                                      ; preds = %65, %47
  %70 = phi ptr [ %.pre74, %47 ], [ %67, %65 ]
  %71 = tail call ptr @H5MM_xfree(ptr noundef %70) #11
  store ptr %71, ptr %22, align 8, !tbaa !21
  br label %.thread62

.thread62:                                        ; preds = %27, %._crit_edge
  br i1 %.not, label %72, label %.loopexit

72:                                               ; preds = %.thread62.thread, %.thread62
  %.147.ph6567 = phi ptr [ null, %.thread62.thread ], [ %.046, %.thread62 ]
  %73 = tail call ptr @H5MM_xfree(ptr noundef %.147.ph6567) #11
  br label %.loopexit

.loopexit:                                        ; preds = %31, %.preheader, %16, %72, %.thread62, %2
  %.0 = phi ptr [ null, %72 ], [ null, %.thread62 ], [ null, %2 ], [ %.046, %16 ], [ %.046, %.preheader ], [ %.046, %31 ]
  ret ptr %.0
}